target datalayout = "e-m:e-p270:32:32-p271:32:32-p272:64:64-i64:64-i128:128-f80:128-n8:16:32:64-S128"
target triple = "x86_64-pc-linux-gnu"

%struct.re_registers = type { i32, i32, ptr, ptr }

; Function Attrs: nounwind sspstrong uwtable
define dso_local void @onig_region_copy(ptr noundef %0, ptr noundef %1) #0 {
  %3 = alloca ptr, align 8
  %4 = alloca ptr, align 8
  %5 = alloca i32, align 4
  %6 = alloca i32, align 4
  %7 = alloca i32, align 4
  store ptr %0, ptr %3, align 8, !tbaa !24
  store ptr %1, ptr %4, align 8, !tbaa !24
  call void @llvm.lifetime.start.p0(i64 4, ptr %5) #12
  call void @llvm.lifetime.start.p0(i64 4, ptr %6) #12
  %8 = load ptr, ptr %3, align 8, !tbaa !24
  %9 = load ptr, ptr %4, align 8, !tbaa !24
  %10 = icmp eq ptr %8, %9
  br i1 %10, label %11, label %12

11:                                               ; preds = %2
  store i32 1, ptr %7, align 4
  br label %64

12:                                               ; preds = %2
  %13 = load ptr, ptr %3, align 8, !tbaa !24
  %14 = load ptr, ptr %4, align 8, !tbaa !24
  %15 = getelementptr inbounds nuw %struct.re_registers, ptr %14, i32 0, i32 1
  %16 = load i32, ptr %15, align 4, !tbaa !27
  %17 = call i32 @onig_region_resize(ptr noundef %13, i32 noundef %16)
  store i32 %17, ptr %6, align 4, !tbaa !26
  %18 = load i32, ptr %6, align 4, !tbaa !26
  %19 = icmp ne i32 %18, 0
  br i1 %19, label %20, label %21

20:                                               ; preds = %12
  store i32 1, ptr %7, align 4
  br label %64

21:                                               ; preds = %12
  store i32 0, ptr %5, align 4, !tbaa !26
  br label %22

22:                                               ; preds = %55, %21
  %23 = load i32, ptr %5, align 4, !tbaa !26
  %24 = load ptr, ptr %4, align 8, !tbaa !24
  %25 = getelementptr inbounds nuw %struct.re_registers, ptr %24, i32 0, i32 1
  %26 = load i32, ptr %25, align 4, !tbaa !27
  %27 = icmp slt i32 %23, %26
  br i1 %27, label %28, label %58

28:                                               ; preds = %22
  %29 = load ptr, ptr %4, align 8, !tbaa !24
  %30 = getelementptr inbounds nuw %struct.re_registers, ptr %29, i32 0, i32 2
  %31 = load ptr, ptr %30, align 8, !tbaa !30
  %32 = load i32, ptr %5, align 4, !tbaa !26
  %33 = sext i32 %32 to i64
  %34 = getelementptr i64, ptr %31, i64 %33
  %35 = load i64, ptr %34, align 8, !tbaa !12
  %36 = load ptr, ptr %3, align 8, !tbaa !24
  %37 = getelementptr inbounds nuw %struct.re_registers, ptr %36, i32 0, i32 2
  %38 = load ptr, ptr %37, align 8, !tbaa !30
  %39 = load i32, ptr %5, align 4, !tbaa !26
  %40 = sext i32 %39 to i64
  %41 = getelementptr i64, ptr %38, i64 %40
  store i64 %35, ptr %41, align 8, !tbaa !12
  %42 = load ptr, ptr %4, align 8, !tbaa !24
  %43 = getelementptr inbounds nuw %struct.re_registers, ptr %42, i32 0, i32 3
  %44 = load ptr, ptr %43, align 8, !tbaa !29
  %45 = load i32, ptr %5, align 4, !tbaa !26
  %46 = sext i32 %45 to i64
  %47 = getelementptr i64, ptr %44, i64 %46
  %48 = load i64, ptr %47, align 8, !tbaa !12
  %49 = load ptr, ptr %3, align 8, !tbaa !24
  %50 = getelementptr inbounds nuw %struct.re_registers, ptr %49, i32 0, i32 3
  %51 = load ptr, ptr %50, align 8, !tbaa !29
  %52 = load i32, ptr %5, align 4, !tbaa !26
  %53 = sext i32 %52 to i64
  %54 = getelementptr i64, ptr %51, i64 %53
  store i64 %48, ptr %54, align 8, !tbaa !12
  br label %55

55:                                               ; preds = %28
  %56 = load i32, ptr %5, align 4, !tbaa !26
  %57 = add i32 %56, 1
  store i32 %57, ptr %5, align 4, !tbaa !26
  br label %22, !llvm.loop !35

58:                                               ; preds = %22
  %59 = load ptr, ptr %4, align 8, !tbaa !24
  %60 = getelementptr inbounds nuw %struct.re_registers, ptr %59, i32 0, i32 1
  %61 = load i32, ptr %60, align 4, !tbaa !27
  %62 = load ptr, ptr %3, align 8, !tbaa !24
  %63 = getelementptr inbounds nuw %struct.re_registers, ptr %62, i32 0, i32 1
  store i32 %61, ptr %63, align 4, !tbaa !27
  store i32 0, ptr %7, align 4
  br label %64

64:                                               ; preds = %58, %20, %11
  call void @llvm.lifetime.end.p0(i64 4, ptr %6) #12
  call void @llvm.lifetime.end.p0(i64 4, ptr %5) #12
  %65 = load i32, ptr %7, align 4
  switch i32 %65, label %67 [
    i32 0, label %66
    i32 1, label %66
  ]

66:                                               ; preds = %64, %64
  ret void

67:                                               ; preds = %64
  unreachable
}