; Function Attrs: nounwind sspstrong uwtable
define dso_local void @onig_region_copy(ptr noundef captures(address) %0, ptr noundef readonly captures(address) %1) local_unnamed_addr #0 {
  %3 = icmp eq ptr %0, %1
  br i1 %3, label %26, label %4

4:                                                ; preds = %2
  %5 = getelementptr inbounds nuw i8, ptr %1, i64 4
  %6 = load i32, ptr %5, align 4, !tbaa !20
  %7 = tail call i32 @onig_region_resize(ptr noundef %0, i32 noundef %6)
  %.not = icmp eq i32 %7, 0
  br i1 %.not, label %.preheader, label %26

.preheader:                                       ; preds = %4
  %8 = load i32, ptr %5, align 4, !tbaa !20
  %9 = icmp sgt i32 %8, 0
  br i1 %9, label %.lr.ph, label %._crit_edge

.lr.ph:                                           ; preds = %.preheader
  %10 = getelementptr inbounds nuw i8, ptr %1, i64 8
  %11 = load ptr, ptr %10, align 8, !tbaa !24
  %12 = getelementptr inbounds nuw i8, ptr %0, i64 8
  %13 = load ptr, ptr %12, align 8, !tbaa !24
  %14 = getelementptr inbounds nuw i8, ptr %1, i64 16
  %15 = load ptr, ptr %14, align 8, !tbaa !23
  %16 = getelementptr inbounds nuw i8, ptr %0, i64 16
  %17 = load ptr, ptr %16, align 8, !tbaa !23
  %wide.trip.count = zext nneg i32 %8 to i64
  br label %18

18:                                               ; preds = %.lr.ph, %18
  %indvars.iv = phi i64 [ 0, %.lr.ph ], [ %indvars.iv.next, %18 ]
  %19 = getelementptr i64, ptr %11, i64 %indvars.iv
  %20 = load i64, ptr %19, align 8, !tbaa !19
  %21 = getelementptr i64, ptr %13, i64 %indvars.iv
  store i64 %20, ptr %21, align 8, !tbaa !19
  %22 = getelementptr i64, ptr %15, i64 %indvars.iv
  %23 = load i64, ptr %22, align 8, !tbaa !19
  %24 = getelementptr i64, ptr %17, i64 %indvars.iv
  store i64 %23, ptr %24, align 8, !tbaa !19
  %indvars.iv.next = add nuw nsw i64 %indvars.iv, 1
  %exitcond.not = icmp eq i64 %indvars.iv.next, %wide.trip.count
  br i1 %exitcond.not, label %._crit_edge, label %18, !llvm.loop !28

._crit_edge:                                      ; preds = %18, %.preheader
  %25 = getelementptr inbounds nuw i8, ptr %0, i64 4
  store i32 %8, ptr %25, align 4, !tbaa !20
  br label %26

26:                                               ; preds = %4, %2, %._crit_edge
  ret void
}